; Function Attrs: null_pointer_is_valid sspstrong uwtable
define hidden ptr @address_type_column_filter_string(ptr noundef %0, i1 noundef zeroext %1) local_unnamed_addr #6 {
  %3 = load i32, ptr %0, align 8
  %4 = sext i32 %3 to i64
  %5 = getelementptr [45 x ptr], ptr @type_list, i64 0, i64 %4
  %6 = load ptr, ptr %5, align 8
  %7 = icmp eq ptr %6, null
  br i1 %7, label %14, label %8

8:                                                ; preds = %2
  %9 = getelementptr inbounds nuw i8, ptr %6, i64 48
  %10 = load ptr, ptr %9, align 8
  %11 = icmp eq ptr %10, null
  br i1 %11, label %14, label %12

12:                                               ; preds = %8
  %13 = tail call ptr %10(ptr noundef %0, i1 noundef zeroext %1)
  br label %14

14:                                               ; preds = %2, %8, %12
  %.0 = phi ptr [ %13, %12 ], [ @.str.30, %8 ], [ @.str.30, %2 ]
  ret ptr %.0
}